target datalayout = "e-m:e-p270:32:32-p271:32:32-p272:64:64-i64:64-i128:128-f80:128-n8:16:32:64-S128"
target triple = "x86_64-pc-linux-gnu"

@stderr = external global ptr, align 8
@.str.21 = private unnamed_addr constant [2 x i8] c"\0A\00", align 1
@.str.22 = private unnamed_addr constant [3 x i8] c"]\0A\00", align 1
@.str.27 = private unnamed_addr constant [4 x i8] c"%g \00", align 1
@.str.37 = private unnamed_addr constant [16 x i8] c"Vectors as well\00", align 1
@.str.38 = private unnamed_addr constant [6 x i8] c"Upper\00", align 1
@.str.39 = private unnamed_addr constant [61 x i8] c"WARN ssyev info returns %d, a very bad PCA matrix is learnt\0A\00", align 1
@.str.40 = private unnamed_addr constant [23 x i8] c"info=%ld new eigvals=[\00", align 1
@.str.41 = private unnamed_addr constant [12 x i8] c"eigenvecs=\0A\00", align 1
@.str.42 = private unnamed_addr constant [8 x i8] c"%10.4g \00", align 1

; Function Attrs: inlinehint mustprogress nounwind uwtable
define linkonce_odr void @_ZSt4swapIdENSt9enable_ifIXsr6__and_ISt6__not_ISt15__is_tuple_likeIT_EESt21is_move_constructibleIS3_ESt18is_move_assignableIS3_EEE5valueEvE4typeERS3_SC_(ptr noundef nonnull align 8 dereferenceable(8) %0, ptr noundef nonnull align 8 dereferenceable(8) %1) #2 comdat {
  %3 = alloca ptr, align 8
  %4 = alloca ptr, align 8
  %5 = alloca double, align 8
  store ptr %0, ptr %3, align 8, !tbaa !221
  store ptr %1, ptr %4, align 8, !tbaa !221
  call void @llvm.lifetime.start.p0(i64 8, ptr %5) #19
  %6 = load ptr, ptr %3, align 8, !tbaa !221
  %7 = load double, ptr %6, align 8, !tbaa !59
  store double %7, ptr %5, align 8, !tbaa !59
  %8 = load ptr, ptr %4, align 8, !tbaa !221
  %9 = load double, ptr %8, align 8, !tbaa !59
  %10 = load ptr, ptr %3, align 8, !tbaa !221
  store double %9, ptr %10, align 8, !tbaa !59
  %11 = load double, ptr %5, align 8, !tbaa !59
  %12 = load ptr, ptr %4, align 8, !tbaa !221
  store double %11, ptr %12, align 8, !tbaa !59
  call void @llvm.lifetime.end.p0(i64 8, ptr %5) #19
  ret void
}

; Function Attrs: mustprogress uwtable
define internal void @_ZN12_GLOBAL__N_13eigEmPdS0_i(i64 noundef %0, ptr noundef %1, ptr noundef %2, i32 noundef %3) #1 {
  %5 = alloca i64, align 8
  %6 = alloca ptr, align 8
  %7 = alloca ptr, align 8
  %8 = alloca i32, align 4
  %9 = alloca i32, align 4
  %10 = alloca i32, align 4
  %11 = alloca i32, align 4
  %12 = alloca double, align 8
  %13 = alloca ptr, align 8
  %14 = alloca i32, align 4
  %15 = alloca ptr, align 8
  %16 = alloca i32, align 4
  %17 = alloca i32, align 4
  %18 = alloca i32, align 4
  %19 = alloca i32, align 4
  %20 = alloca ptr, align 8
  %21 = alloca ptr, align 8
  %22 = alloca i32, align 4
  store i64 %0, ptr %5, align 8, !tbaa !9
  store ptr %1, ptr %6, align 8, !tbaa !221
  store ptr %2, ptr %7, align 8, !tbaa !221
  store i32 %3, ptr %8, align 4, !tbaa !21
  call void @llvm.lifetime.start.p0(i64 4, ptr %9) #19
  store i32 0, ptr %9, align 4, !tbaa !21
  call void @llvm.lifetime.start.p0(i64 4, ptr %10) #19
  store i32 -1, ptr %10, align 4, !tbaa !21
  call void @llvm.lifetime.start.p0(i64 4, ptr %11) #19
  %23 = load i64, ptr %5, align 8, !tbaa !9
  %24 = trunc i64 %23 to i32
  store i32 %24, ptr %11, align 4, !tbaa !21
  call void @llvm.lifetime.start.p0(i64 8, ptr %12) #19
  %25 = load ptr, ptr %6, align 8, !tbaa !221
  %26 = load ptr, ptr %7, align 8, !tbaa !221
  %27 = call i32 @dsyev_(ptr noundef @.str.37, ptr noundef @.str.38, ptr noundef %11, ptr noundef %25, ptr noundef %11, ptr noundef %26, ptr noundef %12, ptr noundef %10, ptr noundef %9)
  %28 = load double, ptr %12, align 8, !tbaa !59
  %29 = fptosi double %28 to i32
  store i32 %29, ptr %10, align 4, !tbaa !21
  call void @llvm.lifetime.start.p0(i64 8, ptr %13) #19
  %30 = load i32, ptr %10, align 4, !tbaa !21
  %31 = sext i32 %30 to i64
  %32 = call { i64, i1 } @llvm.umul.with.overflow.i64(i64 %31, i64 8)
  %33 = extractvalue { i64, i1 } %32, 1
  %34 = extractvalue { i64, i1 } %32, 0
  %35 = select i1 %33, i64 -1, i64 %34
  %36 = call noalias noundef nonnull ptr @_Znam(i64 noundef %35) #23
  store ptr %36, ptr %13, align 8, !tbaa !221
  %37 = load ptr, ptr %6, align 8, !tbaa !221
  %38 = load ptr, ptr %7, align 8, !tbaa !221
  %39 = load ptr, ptr %13, align 8, !tbaa !221
  %40 = call i32 @dsyev_(ptr noundef @.str.37, ptr noundef @.str.38, ptr noundef %11, ptr noundef %37, ptr noundef %11, ptr noundef %38, ptr noundef %39, ptr noundef %10, ptr noundef %9)
  %41 = load ptr, ptr %13, align 8, !tbaa !221
  %42 = icmp eq ptr %41, null
  br i1 %42, label %44, label %43

43:                                               ; preds = %4
  call void @_ZdaPv(ptr noundef %41) #22
  br label %44

44:                                               ; preds = %43, %4
  %45 = load i32, ptr %9, align 4, !tbaa !21
  %46 = icmp ne i32 %45, 0
  br i1 %46, label %47, label %51

47:                                               ; preds = %44
  %48 = load ptr, ptr @stderr, align 8, !tbaa !181
  %49 = load i32, ptr %9, align 4, !tbaa !21
  %50 = call i32 (ptr, ptr, ...) @fprintf(ptr noundef %48, ptr noundef @.str.39, i32 noundef %49) #19
  br label %51

51:                                               ; preds = %47, %44
  %52 = load i32, ptr %8, align 4, !tbaa !21
  %53 = icmp ne i32 %52, 0
  br i1 %53, label %54, label %108

54:                                               ; preds = %51
  %55 = load i64, ptr %5, align 8, !tbaa !9
  %56 = icmp ule i64 %55, 10
  br i1 %56, label %57, label %108

57:                                               ; preds = %54
  %58 = load i32, ptr %9, align 4, !tbaa !21
  %59 = sext i32 %58 to i64
  %60 = call i32 (ptr, ...) @printf(ptr noundef @.str.40, i64 noundef %59)
  call void @llvm.lifetime.start.p0(i64 4, ptr %14) #19
  store i32 0, ptr %14, align 4, !tbaa !21
  br label %61

61:                                               ; preds = %74, %57
  %62 = load i32, ptr %14, align 4, !tbaa !21
  %63 = sext i32 %62 to i64
  %64 = load i64, ptr %5, align 8, !tbaa !9
  %65 = icmp ult i64 %63, %64
  br i1 %65, label %67, label %66

66:                                               ; preds = %61
  call void @llvm.lifetime.end.p0(i64 4, ptr %14) #19
  br label %77

67:                                               ; preds = %61
  %68 = load ptr, ptr %7, align 8, !tbaa !221
  %69 = load i32, ptr %14, align 4, !tbaa !21
  %70 = sext i32 %69 to i64
  %71 = getelementptr inbounds double, ptr %68, i64 %70
  %72 = load double, ptr %71, align 8, !tbaa !59
  %73 = call i32 (ptr, ...) @printf(ptr noundef @.str.27, double noundef %72)
  br label %74

74:                                               ; preds = %67
  %75 = load i32, ptr %14, align 4, !tbaa !21
  %76 = add nsw i32 %75, 1
  store i32 %76, ptr %14, align 4, !tbaa !21
  br label %61, !llvm.loop !222

77:                                               ; preds = %66
  %78 = call i32 (ptr, ...) @printf(ptr noundef @.str.22)
  call void @llvm.lifetime.start.p0(i64 8, ptr %15) #19
  %79 = load ptr, ptr %6, align 8, !tbaa !221
  store ptr %79, ptr %15, align 8, !tbaa !221
  %80 = call i32 (ptr, ...) @printf(ptr noundef @.str.41)
  call void @llvm.lifetime.start.p0(i64 4, ptr %16) #19
  store i32 0, ptr %16, align 4, !tbaa !21
  br label %81

81:                                               ; preds = %104, %77
  %82 = load i32, ptr %16, align 4, !tbaa !21
  %83 = sext i32 %82 to i64
  %84 = load i64, ptr %5, align 8, !tbaa !9
  %85 = icmp ult i64 %83, %84
  br i1 %85, label %87, label %86

86:                                               ; preds = %81
  store i32 5, ptr %17, align 4
  call void @llvm.lifetime.end.p0(i64 4, ptr %16) #19
  br label %107

87:                                               ; preds = %81
  call void @llvm.lifetime.start.p0(i64 4, ptr %18) #19
  store i32 0, ptr %18, align 4, !tbaa !21
  br label %88

88:                                               ; preds = %99, %87
  %89 = load i32, ptr %18, align 4, !tbaa !21
  %90 = sext i32 %89 to i64
  %91 = load i64, ptr %5, align 8, !tbaa !9
  %92 = icmp ult i64 %90, %91
  br i1 %92, label %94, label %93

93:                                               ; preds = %88
  store i32 8, ptr %17, align 4
  call void @llvm.lifetime.end.p0(i64 4, ptr %18) #19
  br label %102

94:                                               ; preds = %88
  %95 = load ptr, ptr %15, align 8, !tbaa !221
  %96 = getelementptr inbounds nuw double, ptr %95, i32 1
  store ptr %96, ptr %15, align 8, !tbaa !221
  %97 = load double, ptr %95, align 8, !tbaa !59
  %98 = call i32 (ptr, ...) @printf(ptr noundef @.str.42, double noundef %97)
  br label %99

99:                                               ; preds = %94
  %100 = load i32, ptr %18, align 4, !tbaa !21
  %101 = add nsw i32 %100, 1
  store i32 %101, ptr %18, align 4, !tbaa !21
  br label %88, !llvm.loop !223

102:                                              ; preds = %93
  %103 = call i32 (ptr, ...) @printf(ptr noundef @.str.21)
  br label %104

104:                                              ; preds = %102
  %105 = load i32, ptr %16, align 4, !tbaa !21
  %106 = add nsw i32 %105, 1
  store i32 %106, ptr %16, align 4, !tbaa !21
  br label %81, !llvm.loop !224

107:                                              ; preds = %86
  call void @llvm.lifetime.end.p0(i64 8, ptr %15) #19
  br label %108

108:                                              ; preds = %107, %54, %51
  call void @llvm.lifetime.end.p0(i64 8, ptr %13) #19
  call void @llvm.lifetime.end.p0(i64 8, ptr %12) #19
  call void @llvm.lifetime.end.p0(i64 4, ptr %11) #19
  call void @llvm.lifetime.end.p0(i64 4, ptr %10) #19
  call void @llvm.lifetime.end.p0(i64 4, ptr %9) #19
  call void @llvm.lifetime.start.p0(i64 4, ptr %19) #19
  store i32 0, ptr %19, align 4, !tbaa !21
  br label %109

109:                                              ; preds = %162, %108
  %110 = load i32, ptr %19, align 4, !tbaa !21
  %111 = sext i32 %110 to i64
  %112 = load i64, ptr %5, align 8, !tbaa !9
  %113 = udiv i64 %112, 2
  %114 = icmp ult i64 %111, %113
  br i1 %114, label %116, label %115

115:                                              ; preds = %109
  store i32 11, ptr %17, align 4
  call void @llvm.lifetime.end.p0(i64 4, ptr %19) #19
  br label %165

116:                                              ; preds = %109
  %117 = load ptr, ptr %7, align 8, !tbaa !221
  %118 = load i32, ptr %19, align 4, !tbaa !21
  %119 = sext i32 %118 to i64
  %120 = getelementptr inbounds double, ptr %117, i64 %119
  %121 = load ptr, ptr %7, align 8, !tbaa !221
  %122 = load i64, ptr %5, align 8, !tbaa !9
  %123 = sub i64 %122, 1
  %124 = load i32, ptr %19, align 4, !tbaa !21
  %125 = sext i32 %124 to i64
  %126 = sub i64 %123, %125
  %127 = getelementptr inbounds nuw double, ptr %121, i64 %126
  call void @_ZSt4swapIdENSt9enable_ifIXsr6__and_ISt6__not_ISt15__is_tuple_likeIT_EESt21is_move_constructibleIS3_ESt18is_move_assignableIS3_EEE5valueEvE4typeERS3_SC_(ptr noundef nonnull align 8 dereferenceable(8) %120, ptr noundef nonnull align 8 dereferenceable(8) %127) #19
  call void @llvm.lifetime.start.p0(i64 8, ptr %20) #19
  %128 = load ptr, ptr %6, align 8, !tbaa !221
  %129 = load i32, ptr %19, align 4, !tbaa !21
  %130 = sext i32 %129 to i64
  %131 = load i64, ptr %5, align 8, !tbaa !9
  %132 = mul i64 %130, %131
  %133 = getelementptr inbounds nuw double, ptr %128, i64 %132
  store ptr %133, ptr %20, align 8, !tbaa !221
  call void @llvm.lifetime.start.p0(i64 8, ptr %21) #19
  %134 = load ptr, ptr %6, align 8, !tbaa !221
  %135 = load i64, ptr %5, align 8, !tbaa !9
  %136 = sub i64 %135, 1
  %137 = load i32, ptr %19, align 4, !tbaa !21
  %138 = sext i32 %137 to i64
  %139 = sub i64 %136, %138
  %140 = load i64, ptr %5, align 8, !tbaa !9
  %141 = mul i64 %139, %140
  %142 = getelementptr inbounds nuw double, ptr %134, i64 %141
  store ptr %142, ptr %21, align 8, !tbaa !221
  call void @llvm.lifetime.start.p0(i64 4, ptr %22) #19
  store i32 0, ptr %22, align 4, !tbaa !21
  br label %143

143:                                              ; preds = %158, %116
  %144 = load i32, ptr %22, align 4, !tbaa !21
  %145 = sext i32 %144 to i64
  %146 = load i64, ptr %5, align 8, !tbaa !9
  %147 = icmp ult i64 %145, %146
  br i1 %147, label %149, label %148

148:                                              ; preds = %143
  store i32 14, ptr %17, align 4
  call void @llvm.lifetime.end.p0(i64 4, ptr %22) #19
  br label %161

149:                                              ; preds = %143
  %150 = load ptr, ptr %20, align 8, !tbaa !221
  %151 = load i32, ptr %22, align 4, !tbaa !21
  %152 = sext i32 %151 to i64
  %153 = getelementptr inbounds double, ptr %150, i64 %152
  %154 = load ptr, ptr %21, align 8, !tbaa !221
  %155 = load i32, ptr %22, align 4, !tbaa !21
  %156 = sext i32 %155 to i64
  %157 = getelementptr inbounds double, ptr %154, i64 %156
  call void @_ZSt4swapIdENSt9enable_ifIXsr6__and_ISt6__not_ISt15__is_tuple_likeIT_EESt21is_move_constructibleIS3_ESt18is_move_assignableIS3_EEE5valueEvE4typeERS3_SC_(ptr noundef nonnull align 8 dereferenceable(8) %153, ptr noundef nonnull align 8 dereferenceable(8) %157) #19
  br label %158

158:                                              ; preds = %149
  %159 = load i32, ptr %22, align 4, !tbaa !21
  %160 = add nsw i32 %159, 1
  store i32 %160, ptr %22, align 4, !tbaa !21
  br label %143, !llvm.loop !225

161:                                              ; preds = %148
  call void @llvm.lifetime.end.p0(i64 8, ptr %21) #19
  call void @llvm.lifetime.end.p0(i64 8, ptr %20) #19
  br label %162

162:                                              ; preds = %161
  %163 = load i32, ptr %19, align 4, !tbaa !21
  %164 = add nsw i32 %163, 1
  store i32 %164, ptr %19, align 4, !tbaa !21
  br label %109, !llvm.loop !226

165:                                              ; preds = %115
  ret void
}