; Function Attrs: mustprogress uwtable
define internal fastcc void @_ZN12_GLOBAL__N_13eigEmPdS0_i(i64 noundef %0, ptr noundef %1, ptr noundef %2, i32 noundef range(i32 0, 2) %3) unnamed_addr #3 {
  %5 = alloca i32, align 4
  %6 = alloca i32, align 4
  %7 = alloca i32, align 4
  %8 = alloca double, align 8
  call void @llvm.lifetime.start.p0(i64 4, ptr nonnull %5) #28
  store i32 0, ptr %5, align 4, !tbaa !38
  call void @llvm.lifetime.start.p0(i64 4, ptr nonnull %6) #28
  store i32 -1, ptr %6, align 4, !tbaa !38
  call void @llvm.lifetime.start.p0(i64 4, ptr nonnull %7) #28
  %9 = trunc i64 %0 to i32
  store i32 %9, ptr %7, align 4, !tbaa !38
  call void @llvm.lifetime.start.p0(i64 8, ptr nonnull %8) #28
  %10 = call i32 @dsyev_(ptr noundef nonnull @.str.37, ptr noundef nonnull @.str.38, ptr noundef nonnull %7, ptr noundef %1, ptr noundef nonnull %7, ptr noundef %2, ptr noundef nonnull %8, ptr noundef nonnull %6, ptr noundef nonnull %5)
  %11 = load double, ptr %8, align 8, !tbaa !64
  %12 = fptosi double %11 to i32
  store i32 %12, ptr %6, align 4, !tbaa !38
  %13 = sext i32 %12 to i64
  %14 = icmp slt i32 %12, 0
  %15 = shl nsw i64 %13, 3
  %16 = select i1 %14, i64 -1, i64 %15
  %17 = call noalias noundef nonnull ptr @_Znam(i64 noundef %16) #32
  %18 = call i32 @dsyev_(ptr noundef nonnull @.str.37, ptr noundef nonnull @.str.38, ptr noundef nonnull %7, ptr noundef %1, ptr noundef nonnull %7, ptr noundef %2, ptr noundef nonnull %17, ptr noundef nonnull %6, ptr noundef nonnull %5)
  call void @_ZdaPv(ptr noundef nonnull %17) #30
  %19 = load i32, ptr %5, align 4, !tbaa !38
  %.not = icmp eq i32 %19, 0
  br i1 %.not, label %23, label %20

20:                                               ; preds = %4
  %21 = load ptr, ptr @stderr, align 8, !tbaa !141
  %22 = call i32 (ptr, ptr, ...) @fprintf(ptr noundef %21, ptr noundef nonnull @.str.39, i32 noundef %19) #33
  br label %23

23:                                               ; preds = %20, %4
  %24 = icmp ne i32 %3, 0
  %25 = icmp ult i64 %0, 11
  %or.cond = and i1 %25, %24
  br i1 %or.cond, label %26, label %.loopexit

26:                                               ; preds = %23
  %27 = load i32, ptr %5, align 4, !tbaa !38
  %28 = sext i32 %27 to i64
  %29 = call i32 (ptr, ...) @printf(ptr noundef nonnull dereferenceable(1) @.str.40, i64 noundef %28)
  %.not68 = icmp eq i64 %0, 0
  br i1 %.not68, label %.loopexit.thread.critedge, label %.lr.ph

._crit_edge:                                      ; preds = %.lr.ph
  %puts = call i32 @puts(ptr nonnull dereferenceable(1) @str.9)
  %puts54 = call i32 @puts(ptr nonnull dereferenceable(1) @str.8)
  br label %.preheader

.loopexit.thread.critedge:                        ; preds = %26
  %puts.c = call i32 @puts(ptr nonnull dereferenceable(1) @str.9)
  %puts54.c = call i32 @puts(ptr nonnull dereferenceable(1) @str.8)
  call void @llvm.lifetime.end.p0(i64 8, ptr nonnull %8) #28
  call void @llvm.lifetime.end.p0(i64 4, ptr nonnull %7) #28
  call void @llvm.lifetime.end.p0(i64 4, ptr nonnull %6) #28
  call void @llvm.lifetime.end.p0(i64 4, ptr nonnull %5) #28
  br label %._crit_edge67

.lr.ph:                                           ; preds = %26, %.lr.ph
  %indvars.iv = phi i64 [ %indvars.iv.next, %.lr.ph ], [ 0, %26 ]
  %30 = getelementptr inbounds nuw double, ptr %2, i64 %indvars.iv
  %31 = load double, ptr %30, align 8, !tbaa !64
  %32 = call i32 (ptr, ...) @printf(ptr noundef nonnull dereferenceable(1) @.str.27, double noundef %31)
  %indvars.iv.next = add nuw i64 %indvars.iv, 1
  %exitcond.not = icmp eq i64 %indvars.iv.next, %0
  br i1 %exitcond.not, label %._crit_edge, label %.lr.ph, !llvm.loop !153

.preheader:                                       ; preds = %._crit_edge, %33
  %indvars.iv76 = phi i64 [ 0, %._crit_edge ], [ %indvars.iv.next77, %33 ]
  %.04559 = phi ptr [ %1, %._crit_edge ], [ %35, %33 ]
  br label %34

33:                                               ; preds = %34
  %putchar = call i32 @putchar(i32 10)
  %indvars.iv.next77 = add nuw i64 %indvars.iv76, 1
  %exitcond79.not = icmp eq i64 %indvars.iv.next77, %0
  br i1 %exitcond79.not, label %.loopexit, label %.preheader, !llvm.loop !154

34:                                               ; preds = %.preheader, %34
  %indvars.iv72 = phi i64 [ 0, %.preheader ], [ %indvars.iv.next73, %34 ]
  %.157 = phi ptr [ %.04559, %.preheader ], [ %35, %34 ]
  %35 = getelementptr inbounds nuw i8, ptr %.157, i64 8
  %36 = load double, ptr %.157, align 8, !tbaa !64
  %37 = call i32 (ptr, ...) @printf(ptr noundef nonnull dereferenceable(1) @.str.42, double noundef %36)
  %indvars.iv.next73 = add nuw i64 %indvars.iv72, 1
  %exitcond75.not = icmp eq i64 %indvars.iv.next73, %0
  br i1 %exitcond75.not, label %33, label %34, !llvm.loop !155

.loopexit:                                        ; preds = %33, %23
  call void @llvm.lifetime.end.p0(i64 8, ptr nonnull %8) #28
  call void @llvm.lifetime.end.p0(i64 4, ptr nonnull %7) #28
  call void @llvm.lifetime.end.p0(i64 4, ptr nonnull %6) #28
  call void @llvm.lifetime.end.p0(i64 4, ptr nonnull %5) #28
  %38 = lshr i64 %0, 1
  %.not70 = icmp ult i64 %0, 2
  br i1 %.not70, label %._crit_edge67, label %.lr.ph62.us

.lr.ph62.us:                                      ; preds = %.loopexit, %._crit_edge63.us
  %indvars.iv84 = phi i64 [ %indvars.iv.next85, %._crit_edge63.us ], [ 0, %.loopexit ]
  %39 = getelementptr inbounds nuw double, ptr %2, i64 %indvars.iv84
  %40 = xor i64 %indvars.iv84, -1
  %41 = add i64 %0, %40
  %42 = getelementptr inbounds nuw double, ptr %2, i64 %41
  %43 = load double, ptr %39, align 8, !tbaa !64
  %44 = load double, ptr %42, align 8, !tbaa !64
  store double %44, ptr %39, align 8, !tbaa !64
  store double %43, ptr %42, align 8, !tbaa !64
  %45 = mul i64 %indvars.iv84, %0
  %46 = getelementptr inbounds nuw double, ptr %1, i64 %45
  %47 = mul i64 %41, %0
  %48 = getelementptr inbounds nuw double, ptr %1, i64 %47
  br label %49

49:                                               ; preds = %.lr.ph62.us, %49
  %indvars.iv80 = phi i64 [ 0, %.lr.ph62.us ], [ %indvars.iv.next81, %49 ]
  %50 = getelementptr inbounds nuw double, ptr %46, i64 %indvars.iv80
  %51 = getelementptr inbounds nuw double, ptr %48, i64 %indvars.iv80
  %52 = load double, ptr %50, align 8, !tbaa !64
  %53 = load double, ptr %51, align 8, !tbaa !64
  store double %53, ptr %50, align 8, !tbaa !64
  store double %52, ptr %51, align 8, !tbaa !64
  %indvars.iv.next81 = add nuw nsw i64 %indvars.iv80, 1
  %exitcond83.not = icmp eq i64 %indvars.iv.next81, %0
  br i1 %exitcond83.not, label %._crit_edge63.us, label %49, !llvm.loop !156

._crit_edge63.us:                                 ; preds = %49
  %indvars.iv.next85 = add nuw nsw i64 %indvars.iv84, 1
  %exitcond87.not = icmp eq i64 %indvars.iv.next85, %38
  br i1 %exitcond87.not, label %._crit_edge67, label %.lr.ph62.us, !llvm.loop !157

._crit_edge67:                                    ; preds = %._crit_edge63.us, %.loopexit.thread.critedge, %.loopexit
  ret void
}